; Function Attrs: nounwind uwtable
define void @dtgtk_gradient_slider_set_marker(ptr noundef %0, i32 noundef %1) local_unnamed_addr #0 {
  %.not.i = icmp eq ptr %0, null
  br i1 %.not.i, label %3, label %4, !prof !45

3:                                                ; preds = %2
  tail call void @g_return_if_fail_warning(ptr noundef null, ptr noundef nonnull @__func__.dtgtk_gradient_slider_multivalue_set_marker, ptr noundef nonnull @.str.1) #14
  br label %dtgtk_gradient_slider_multivalue_set_marker.exit

4:                                                ; preds = %2
  %5 = getelementptr inbounds nuw i8, ptr %0, i64 224
  store i32 %1, ptr %5, align 4, !tbaa !44
  %6 = tail call i64 @gtk_widget_get_type() #15
  %7 = tail call ptr @g_type_check_instance_cast(ptr noundef nonnull %0, i64 noundef %6) #14
  tail call void @gtk_widget_queue_draw(ptr noundef %7) #14
  br label %dtgtk_gradient_slider_multivalue_set_marker.exit

dtgtk_gradient_slider_multivalue_set_marker.exit: ; preds = %3, %4
  ret void
}